target datalayout = "e-m:e-p270:32:32-p271:32:32-p272:64:64-i64:64-i128:128-f80:128-n8:16:32:64-S128"
target triple = "x86_64-pc-linux-gnu"

; Function Attrs: mustprogress uwtable
define i32 @zmq_timers_set_interval(ptr noundef %0, i32 noundef %1, i64 noundef %2) #1 {
  %4 = alloca i32, align 4
  %5 = alloca ptr, align 8
  %6 = alloca i32, align 4
  %7 = alloca i64, align 8
  store ptr %0, ptr %5, align 8, !tbaa !12
  store i32 %1, ptr %6, align 4, !tbaa !8
  store i64 %2, ptr %7, align 8, !tbaa !13
  %8 = load ptr, ptr %5, align 8, !tbaa !12
  %9 = icmp ne ptr %8, null
  br i1 %9, label %10, label %13

10:                                               ; preds = %3
  %11 = load ptr, ptr %5, align 8, !tbaa !12
  %12 = call noundef zeroext i1 @_ZNK3zmq8timers_t9check_tagEv(ptr noundef nonnull align 8 dereferenceable(120) %11)
  br i1 %12, label %15, label %13

13:                                               ; preds = %10, %3
  %14 = call ptr @__errno_location() #19
  store i32 14, ptr %14, align 4, !tbaa !8
  store i32 -1, ptr %4, align 4
  br label %20

15:                                               ; preds = %10
  %16 = load ptr, ptr %5, align 8, !tbaa !12
  %17 = load i32, ptr %6, align 4, !tbaa !8
  %18 = load i64, ptr %7, align 8, !tbaa !13
  %19 = call noundef i32 @_ZN3zmq8timers_t12set_intervalEim(ptr noundef nonnull align 8 dereferenceable(120) %16, i32 noundef %17, i64 noundef %18)
  store i32 %19, ptr %4, align 4
  br label %20

20:                                               ; preds = %15, %13
  %21 = load i32, ptr %4, align 4
  ret i32 %21
}