; Function Attrs: mustprogress uwtable
define noundef i32 @zmq_timers_set_interval(ptr noundef %0, i32 noundef %1, i64 noundef %2) local_unnamed_addr #1 {
  %.not = icmp eq ptr %0, null
  br i1 %.not, label %6, label %4

4:                                                ; preds = %3
  %5 = tail call noundef zeroext i1 @_ZNK3zmq8timers_t9check_tagEv(ptr noundef nonnull align 8 dereferenceable(120) %0)
  br i1 %5, label %8, label %6

6:                                                ; preds = %4, %3
  %7 = tail call ptr @__errno_location() #20
  store i32 14, ptr %7, align 4, !tbaa !3
  br label %10

8:                                                ; preds = %4
  %9 = tail call noundef i32 @_ZN3zmq8timers_t12set_intervalEim(ptr noundef nonnull align 8 dereferenceable(120) %0, i32 noundef %1, i64 noundef %2)
  br label %10

10:                                               ; preds = %8, %6
  %.0 = phi i32 [ %9, %8 ], [ -1, %6 ]
  ret i32 %.0
}